target datalayout = "e-m:e-p270:32:32-p271:32:32-p272:64:64-i64:64-i128:128-f80:128-n8:16:32:64-S128"
target triple = "x86_64-pc-linux-gnu"

%"class.smt::theory_intblast::translator_trail" = type { %class.bv2int_translator_trail, ptr }
%class.bv2int_translator_trail = type { ptr }
%class.arith_util = type { ptr, ptr }
%class.bv_util = type { %class.bv_recognizers, ptr, ptr }
%class.bv_recognizers = type { i32 }
%class.ptr_vector.51 = type { %class.vector.52 }
%class.vector.52 = type { ptr }
%class.ptr_vector.163 = type { %class.vector.164 }
%class.vector.164 = type { ptr }
%class.ptr_vector = type { %class.vector.3 }
%class.vector.3 = type { ptr }
%class.svector.4 = type { %class.vector.5 }
%class.vector.5 = type { ptr }
%class.ref_vector = type { %class.ref_vector_core }
%class.ref_vector_core = type { %class.ref_manager_wrapper, %class.ptr_vector }
%class.ref_manager_wrapper = type { ptr }
%class.ref_vector.151 = type { %class.ref_vector_core.152 }
%class.ref_vector_core.152 = type { %class.ref_manager_wrapper.153, %class.ptr_vector.154 }
%class.ref_manager_wrapper.153 = type { ptr }
%class.ptr_vector.154 = type { %class.vector.155 }
%class.vector.155 = type { ptr }
%"class.smt::theory_intblast" = type { %"class.smt::theory.base", %"class.smt::theory_intblast::translator_trail", %class.bv2int_translator, %class.bv_util, %class.arith_util, i32, i32, ptr }
%"class.smt::theory.base" = type <{ ptr, i32, [4 x i8], ptr, ptr, %class.ptr_vector.163, %class.svector.4, i32, i8 }>
%class.bv2int_translator = type <{ ptr, ptr, %class.bv_util, %class.arith_util, %class.obj_map.266, %class.ref_vector, %class.ref_vector, %class.ref_vector.151, %class.ptr_vector.51, %class.ptr_vector.51, %class.ref_vector, %class.ref_vector, i8, [7 x i8] }>
%class.obj_map.266 = type { %class.core_hashtable.267 }
%class.core_hashtable.267 = type <{ ptr, i32, i32, i32, [4 x i8] }>
%"class.smt::theory" = type <{ ptr, i32, [4 x i8], ptr, ptr, %class.ptr_vector.163, %class.svector.4, i32, i8, [3 x i8] }>

@_ZTVN3smt6theoryE = external unnamed_addr constant { [51 x ptr] }, align 8

; Function Attrs: mustprogress uwtable
define linkonce_odr hidden void @_ZN6vectorIPN3smt5enodeELb0EjE11free_memoryEv(ptr noundef nonnull align 8 dereferenceable(8) %0) #6 comdat align 2 {
  %2 = alloca ptr, align 8
  store ptr %0, ptr %2, align 8, !tbaa !667
  %3 = load ptr, ptr %2, align 8
  %4 = getelementptr inbounds nuw %class.vector.164, ptr %3, i32 0, i32 0
  %5 = load ptr, ptr %4, align 8, !tbaa !670
  %6 = getelementptr inbounds i32, ptr %5, i64 -2
  call void @_ZN6memory10deallocateEPv(ptr noundef %6)
  ret void
}

; Function Attrs: mustprogress uwtable
define linkonce_odr hidden void @_ZN6vectorIjLb0EjE11free_memoryEv(ptr noundef nonnull align 8 dereferenceable(8) %0) #6 comdat align 2 {
  %2 = alloca ptr, align 8
  store ptr %0, ptr %2, align 8, !tbaa !665
  %3 = load ptr, ptr %2, align 8
  %4 = getelementptr inbounds nuw %class.vector.5, ptr %3, i32 0, i32 0
  %5 = load ptr, ptr %4, align 8, !tbaa !669
  %6 = getelementptr inbounds i32, ptr %5, i64 -2
  call void @_ZN6memory10deallocateEPv(ptr noundef %6)
  ret void
}

; Function Attrs: mustprogress uwtable
define linkonce_odr hidden void @_ZN6vectorIPN3smt5enodeELb0EjE7destroyEv(ptr noundef nonnull align 8 dereferenceable(8) %0) #6 comdat align 2 {
  %2 = alloca ptr, align 8
  store ptr %0, ptr %2, align 8, !tbaa !667
  %3 = load ptr, ptr %2, align 8
  %4 = getelementptr inbounds nuw %class.vector.164, ptr %3, i32 0, i32 0
  %5 = load ptr, ptr %4, align 8, !tbaa !670
  %6 = icmp ne ptr %5, null
  br i1 %6, label %7, label %8

7:                                                ; preds = %1
  call void @_ZN6vectorIPN3smt5enodeELb0EjE11free_memoryEv(ptr noundef nonnull align 8 dereferenceable(8) %3)
  br label %8

8:                                                ; preds = %7, %1
  ret void
}

; Function Attrs: mustprogress uwtable
define linkonce_odr hidden void @_ZN6vectorIjLb0EjE7destroyEv(ptr noundef nonnull align 8 dereferenceable(8) %0) #6 comdat align 2 {
  %2 = alloca ptr, align 8
  store ptr %0, ptr %2, align 8, !tbaa !665
  %3 = load ptr, ptr %2, align 8
  %4 = getelementptr inbounds nuw %class.vector.5, ptr %3, i32 0, i32 0
  %5 = load ptr, ptr %4, align 8, !tbaa !669
  %6 = icmp ne ptr %5, null
  br i1 %6, label %7, label %8

7:                                                ; preds = %1
  call void @_ZN6vectorIjLb0EjE11free_memoryEv(ptr noundef nonnull align 8 dereferenceable(8) %3)
  br label %8

8:                                                ; preds = %7, %1
  ret void
}

; Function Attrs: mustprogress nounwind uwtable
define linkonce_odr hidden void @_ZN6vectorIPN3smt5enodeELb0EjED2Ev(ptr noundef nonnull align 8 dereferenceable(8) %0) unnamed_addr #4 comdat align 2 personality ptr @__gxx_personality_v0 {
  %2 = alloca ptr, align 8
  store ptr %0, ptr %2, align 8, !tbaa !667
  %3 = load ptr, ptr %2, align 8
  invoke void @_ZN6vectorIPN3smt5enodeELb0EjE7destroyEv(ptr noundef nonnull align 8 dereferenceable(8) %3)
          to label %4 unwind label %5

4:                                                ; preds = %1
  ret void

5:                                                ; preds = %1
  %6 = landingpad { ptr, i32 }
          catch ptr null
  %7 = extractvalue { ptr, i32 } %6, 0
  call void @__clang_call_terminate(ptr %7) #20
  unreachable
}

; Function Attrs: mustprogress nounwind uwtable
define linkonce_odr hidden void @_ZN6vectorIjLb0EjED2Ev(ptr noundef nonnull align 8 dereferenceable(8) %0) unnamed_addr #4 comdat align 2 personality ptr @__gxx_personality_v0 {
  %2 = alloca ptr, align 8
  store ptr %0, ptr %2, align 8, !tbaa !665
  %3 = load ptr, ptr %2, align 8
  invoke void @_ZN6vectorIjLb0EjE7destroyEv(ptr noundef nonnull align 8 dereferenceable(8) %3)
          to label %4 unwind label %5

4:                                                ; preds = %1
  ret void

5:                                                ; preds = %1
  %6 = landingpad { ptr, i32 }
          catch ptr null
  %7 = extractvalue { ptr, i32 } %6, 0
  call void @__clang_call_terminate(ptr %7) #20
  unreachable
}

; Function Attrs: mustprogress nounwind uwtable
define linkonce_odr hidden void @_ZN3smt6theoryD2Ev(ptr noundef nonnull align 8 dereferenceable(53) %0) unnamed_addr #4 comdat align 2 {
  %2 = alloca ptr, align 8
  store ptr %0, ptr %2, align 8, !tbaa !556
  %3 = load ptr, ptr %2, align 8
  store ptr getelementptr inbounds inrange(-16, 392) ({ [51 x ptr] }, ptr @_ZTVN3smt6theoryE, i32 0, i32 0, i32 2), ptr %3, align 8, !tbaa !45
  %4 = getelementptr inbounds nuw %"class.smt::theory", ptr %3, i32 0, i32 6
  call void @_ZN6vectorIjLb0EjED2Ev(ptr noundef nonnull align 8 dereferenceable(8) %4) #3
  %5 = getelementptr inbounds nuw %"class.smt::theory", ptr %3, i32 0, i32 5
  call void @_ZN6vectorIPN3smt5enodeELb0EjED2Ev(ptr noundef nonnull align 8 dereferenceable(8) %5) #3
  ret void
}

; Function Attrs: mustprogress nounwind uwtable
define linkonce_odr hidden void @_ZN23bv2int_translator_trailD2Ev(ptr noundef nonnull align 8 dereferenceable(8) %0) unnamed_addr #4 comdat align 2 {
  %2 = alloca ptr, align 8
  store ptr %0, ptr %2, align 8, !tbaa !555
  ret void
}

; Function Attrs: mustprogress nounwind uwtable
define hidden void @_ZN3smt15theory_intblastD2Ev(ptr noundef nonnull align 8 dereferenceable(312) %0) unnamed_addr #4 align 2 {
  %2 = alloca ptr, align 8
  store ptr %0, ptr %2, align 8, !tbaa !43
  %3 = load ptr, ptr %2, align 8
  store ptr getelementptr inbounds inrange(-16, 392) ({ [51 x ptr] }, ptr @_ZTVN3smt15theory_intblastE, i32 0, i32 0, i32 2), ptr %3, align 8, !tbaa !45
  %4 = getelementptr inbounds nuw %"class.smt::theory_intblast", ptr %3, i32 0, i32 2
  call void @_ZN17bv2int_translatorD2Ev(ptr noundef nonnull align 8 dereferenceable(177) %4) #3
  %5 = getelementptr inbounds nuw %"class.smt::theory_intblast", ptr %3, i32 0, i32 1
  call void @_ZN23bv2int_translator_trailD2Ev(ptr noundef nonnull align 8 dereferenceable(16) %5) #3
  call void @_ZN3smt6theoryD2Ev(ptr noundef nonnull align 8 dereferenceable(53) %3) #3
  ret void
}