; Function Attrs: mustprogress nounwind uwtable
define hidden void @_ZN3smt15theory_intblastD2Ev(ptr noundef nonnull align 8 dereferenceable(312) initializes((0, 8)) %0) unnamed_addr #6 align 2 personality ptr @__gxx_personality_v0 {
  store ptr getelementptr inbounds nuw inrange(-16, 392) (i8, ptr @_ZTVN3smt15theory_intblastE, i64 16), ptr %0, align 8, !tbaa !10
  %2 = getelementptr inbounds nuw i8, ptr %0, i64 72
  tail call void @_ZN17bv2int_translatorD2Ev(ptr noundef nonnull align 8 dereferenceable(177) %2) #20
  store ptr getelementptr inbounds nuw inrange(-16, 392) (i8, ptr @_ZTVN3smt6theoryE, i64 16), ptr %0, align 8, !tbaa !10
  %3 = getelementptr inbounds nuw i8, ptr %0, i64 40
  %4 = load ptr, ptr %3, align 8, !tbaa !540
  %.not.i.i.i = icmp eq ptr %4, null
  br i1 %.not.i.i.i, label %_ZN6vectorIjLb0EjED2Ev.exit.i, label %5

5:                                                ; preds = %1
  %6 = getelementptr inbounds i8, ptr %4, i64 -8
  invoke void @_ZN6memory10deallocateEPv(ptr noundef nonnull %6)
          to label %_ZN6vectorIjLb0EjED2Ev.exit.i unwind label %7

7:                                                ; preds = %5
  %8 = landingpad { ptr, i32 }
          catch ptr null
  %9 = extractvalue { ptr, i32 } %8, 0
  tail call void @__clang_call_terminate(ptr %9) #21
  unreachable

_ZN6vectorIjLb0EjED2Ev.exit.i:                    ; preds = %5, %1
  %10 = getelementptr inbounds nuw i8, ptr %0, i64 32
  %11 = load ptr, ptr %10, align 8, !tbaa !541
  %.not.i.i1.i = icmp eq ptr %11, null
  br i1 %.not.i.i1.i, label %_ZN3smt6theoryD2Ev.exit, label %12

12:                                               ; preds = %_ZN6vectorIjLb0EjED2Ev.exit.i
  %13 = getelementptr inbounds i8, ptr %11, i64 -8
  invoke void @_ZN6memory10deallocateEPv(ptr noundef nonnull %13)
          to label %_ZN3smt6theoryD2Ev.exit unwind label %14

14:                                               ; preds = %12
  %15 = landingpad { ptr, i32 }
          catch ptr null
  %16 = extractvalue { ptr, i32 } %15, 0
  tail call void @__clang_call_terminate(ptr %16) #21
  unreachable

_ZN3smt6theoryD2Ev.exit:                          ; preds = %_ZN6vectorIjLb0EjED2Ev.exit.i, %12
  ret void
}